; Function Attrs: nounwind uwtable
define ptr @duckdb_je_bootstrap_calloc(i64 noundef %0, i64 noundef %1) local_unnamed_addr #2 {
  %3 = mul i64 %1, %0
  %4 = icmp eq i64 %3, 0
  br i1 %4, label %5, label %6, !prof !7

5:                                                ; preds = %2
  br label %6

6:                                                ; preds = %5, %2
  %.0 = phi i64 [ 1, %5 ], [ %3, %2 ]
  %7 = tail call fastcc ptr @a0ialloc(i64 noundef %.0, i1 noundef zeroext true, i1 noundef zeroext false)
  ret ptr %7
}